; Function Attrs: inlinehint mustprogress nounwind uwtable
define internal fastcc void @_ZN12_GLOBAL__N_19CxxModuleD2Ev(ptr noundef nonnull align 8 dereferenceable(1064) %0) unnamed_addr #4 align 2 personality ptr @__gxx_personality_v0 {
  %2 = getelementptr inbounds nuw i8, ptr %0, i64 1032
  %3 = load ptr, ptr %2, align 8, !tbaa !15
  %4 = getelementptr inbounds nuw i8, ptr %0, i64 1048
  %5 = icmp eq ptr %3, %4
  br i1 %5, label %_ZNKSt7__cxx1112basic_stringIcSt11char_traitsIcESaIcEE11_M_is_localEv.exit.thread.i.i, label %_ZNKSt7__cxx1112basic_stringIcSt11char_traitsIcESaIcEE11_M_is_localEv.exit.i.i

_ZNKSt7__cxx1112basic_stringIcSt11char_traitsIcESaIcEE11_M_is_localEv.exit.thread.i.i: ; preds = %1
  %6 = getelementptr inbounds nuw i8, ptr %0, i64 1040
  %7 = load i64, ptr %6, align 8, !tbaa !20
  %8 = icmp ult i64 %7, 16
  tail call void @llvm.assume(i1 %8)
  br label %_ZNSt7__cxx1112basic_stringIcSt11char_traitsIcESaIcEED2Ev.exit

_ZNKSt7__cxx1112basic_stringIcSt11char_traitsIcESaIcEE11_M_is_localEv.exit.i.i: ; preds = %1
  %9 = load i64, ptr %4, align 8, !tbaa !21
  %10 = add i64 %9, 1
  tail call void @_ZdlPvm(ptr noundef %3, i64 noundef %10) #30
  br label %_ZNSt7__cxx1112basic_stringIcSt11char_traitsIcESaIcEED2Ev.exit

_ZNSt7__cxx1112basic_stringIcSt11char_traitsIcESaIcEED2Ev.exit: ; preds = %_ZNKSt7__cxx1112basic_stringIcSt11char_traitsIcESaIcEE11_M_is_localEv.exit.thread.i.i, %_ZNKSt7__cxx1112basic_stringIcSt11char_traitsIcESaIcEE11_M_is_localEv.exit.i.i
  %11 = getelementptr inbounds nuw i8, ptr %0, i64 816
  tail call fastcc void @_ZN12_GLOBAL__N_19CxxStructD2Ev(ptr noundef nonnull align 8 dereferenceable(216) %11) #29
  %12 = getelementptr inbounds nuw i8, ptr %0, i64 600
  tail call fastcc void @_ZN12_GLOBAL__N_19CxxStructD2Ev(ptr noundef nonnull align 8 dereferenceable(216) %12) #29
  %13 = getelementptr inbounds nuw i8, ptr %0, i64 384
  tail call fastcc void @_ZN12_GLOBAL__N_19CxxStructD2Ev(ptr noundef nonnull align 8 dereferenceable(216) %13) #29
  tail call void @_ZN5Yosys10Functional2IRD2Ev(ptr noundef nonnull align 8 dereferenceable(384) %0) #29
  ret void
}